; ModuleID = '61/1153.c'
source_filename = "61/1153.c"
target datalayout = "e-m:e-p270:32:32-p271:32:32-p272:64:64-i64:64-f80:128-n8:16:32:64-S128"
target triple = "x86_64-pc-linux-gnu"

@.str = private unnamed_addr constant [3 x i8] c"%d\00", align 1
@.str.1 = private unnamed_addr constant [4 x i8] c"%d\0A\00", align 1

; Function Attrs: noinline nounwind uwtable
define dso_local i32 @main() #0 {
  %1 = alloca i32, align 4
  %2 = alloca i32, align 4
  %3 = alloca i32, align 4
  %4 = alloca i32, align 4
  %5 = alloca [20 x i32], align 16
  %6 = alloca [20 x i32], align 16
  store i32 0, i32* %1, align 4
  %7 = getelementptr inbounds [20 x i32], [20 x i32]* %5, i64 0, i64 1
  store i32 1, i32* %7, align 4
  %8 = getelementptr inbounds [20 x i32], [20 x i32]* %5, i64 0, i64 0
  store i32 1, i32* %8, align 16
  store i32 2, i32* %3, align 4
  br label %9

9:                                                ; preds = %27, %0
  %10 = load i32, i32* %3, align 4
  %11 = icmp slt i32 %10, 20
  br i1 %11, label %12, label %30

12:                                               ; preds = %9
  %13 = load i32, i32* %3, align 4
  %14 = sub nsw i32 %13, 1
  %15 = sext i32 %14 to i64
  %16 = getelementptr inbounds [20 x i32], [20 x i32]* %5, i64 0, i64 %15
  %17 = load i32, i32* %16, align 4
  %18 = load i32, i32* %3, align 4
  %19 = sub nsw i32 %18, 2
  %20 = sext i32 %19 to i64
  %21 = getelementptr inbounds [20 x i32], [20 x i32]* %5, i64 0, i64 %20
  %22 = load i32, i32* %21, align 4
  %23 = add nsw i32 %17, %22
  %24 = load i32, i32* %3, align 4
  %25 = sext i32 %24 to i64
  %26 = getelementptr inbounds [20 x i32], [20 x i32]* %5, i64 0, i64 %25
  store i32 %23, i32* %26, align 4
  br label %27

27:                                               ; preds = %12
  %28 = load i32, i32* %3, align 4
  %29 = add nsw i32 %28, 1
  store i32 %29, i32* %3, align 4
  br label %9

30:                                               ; preds = %9
  %31 = call i32 (i8*, ...) @__isoc99_scanf(i8* getelementptr inbounds ([3 x i8], [3 x i8]* @.str, i64 0, i64 0), i32* %2)
  store i32 0, i32* %3, align 4
  br label %32

32:                                               ; preds = %41, %30
  %33 = load i32, i32* %3, align 4
  %34 = load i32, i32* %2, align 4
  %35 = icmp slt i32 %33, %34
  br i1 %35, label %36, label %44

36:                                               ; preds = %32
  %37 = load i32, i32* %3, align 4
  %38 = sext i32 %37 to i64
  %39 = getelementptr inbounds [20 x i32], [20 x i32]* %6, i64 0, i64 %38
  %40 = call i32 (i8*, ...) @__isoc99_scanf(i8* getelementptr inbounds ([3 x i8], [3 x i8]* @.str, i64 0, i64 0), i32* %39)
  br label %41

41:                                               ; preds = %36
  %42 = load i32, i32* %3, align 4
  %43 = add nsw i32 %42, 1
  store i32 %43, i32* %3, align 4
  br label %32

44:                                               ; preds = %32
  store i32 0, i32* %3, align 4
  br label %45

45:                                               ; preds = %72, %44
  %46 = load i32, i32* %3, align 4
  %47 = load i32, i32* %2, align 4
  %48 = icmp slt i32 %46, %47
  br i1 %48, label %49, label %75

49:                                               ; preds = %45
  store i32 1, i32* %4, align 4
  br label %50

50:                                               ; preds = %68, %49
  %51 = load i32, i32* %4, align 4
  %52 = icmp slt i32 %51, 21
  br i1 %52, label %53, label %71

53:                                               ; preds = %50
  %54 = load i32, i32* %3, align 4
  %55 = sext i32 %54 to i64
  %56 = getelementptr inbounds [20 x i32], [20 x i32]* %6, i64 0, i64 %55
  %57 = load i32, i32* %56, align 4
  %58 = load i32, i32* %4, align 4
  %59 = icmp eq i32 %57, %58
  br i1 %59, label %60, label %67

60:                                               ; preds = %53
  %61 = load i32, i32* %4, align 4
  %62 = sub nsw i32 %61, 1
  %63 = sext i32 %62 to i64
  %64 = getelementptr inbounds [20 x i32], [20 x i32]* %5, i64 0, i64 %63
  %65 = load i32, i32* %64, align 4
  %66 = call i32 (i8*, ...) @printf(i8* getelementptr inbounds ([4 x i8], [4 x i8]* @.str.1, i64 0, i64 0), i32 %65)
  br label %67

67:                                               ; preds = %60, %53
  br label %68

68:                                               ; preds = %67
  %69 = load i32, i32* %4, align 4
  %70 = add nsw i32 %69, 1
  store i32 %70, i32* %4, align 4
  br label %50

71:                                               ; preds = %50
  br label %72

72:                                               ; preds = %71
  %73 = load i32, i32* %3, align 4
  %74 = add nsw i32 %73, 1
  store i32 %74, i32* %3, align 4
  br label %45

75:                                               ; preds = %45
  ret i32 0
}

declare dso_local i32 @__isoc99_scanf(i8*, ...) #1

declare dso_local i32 @printf(i8*, ...) #1


!llvm.module.flags = !{!0}
!llvm.ident = !{!1}

!0 = !{i32 1, !"wchar_size", i32 4}
!1 = !{!"clang version 10.0.0-4ubuntu1 "}
